target datalayout = "e-m:e-p270:32:32-p271:32:32-p272:64:64-i64:64-i128:128-f80:128-n8:16:32:64-S128"
target triple = "x86_64-pc-linux-gnu"

%struct.config_alias_data = type { ptr, ptr, ptr }

@.str = private unnamed_addr constant [7 x i8] c"alias.\00", align 1

; Function Attrs: inlinehint nounwind uwtable
define internal zeroext i1 @skip_prefix(ptr noundef %0, ptr noundef %1, ptr noundef %2) #3 {
  %4 = alloca i1, align 1
  %5 = alloca ptr, align 8
  %6 = alloca ptr, align 8
  %7 = alloca ptr, align 8
  store ptr %0, ptr %5, align 8, !tbaa !4
  store ptr %1, ptr %6, align 8, !tbaa !4
  store ptr %2, ptr %7, align 8, !tbaa !24
  br label %8

8:                                                ; preds = %16, %3
  %9 = load ptr, ptr %6, align 8, !tbaa !4
  %10 = load i8, ptr %9, align 1, !tbaa !26
  %11 = icmp ne i8 %10, 0
  br i1 %11, label %15, label %12

12:                                               ; preds = %8
  %13 = load ptr, ptr %5, align 8, !tbaa !4
  %14 = load ptr, ptr %7, align 8, !tbaa !24
  store ptr %13, ptr %14, align 8, !tbaa !4
  store i1 true, ptr %4, align 1
  br label %27

15:                                               ; preds = %8
  br label %16

16:                                               ; preds = %15
  %17 = load ptr, ptr %5, align 8, !tbaa !4
  %18 = getelementptr inbounds nuw i8, ptr %17, i32 1
  store ptr %18, ptr %5, align 8, !tbaa !4
  %19 = load i8, ptr %17, align 1, !tbaa !26
  %20 = sext i8 %19 to i32
  %21 = load ptr, ptr %6, align 8, !tbaa !4
  %22 = getelementptr inbounds nuw i8, ptr %21, i32 1
  store ptr %22, ptr %6, align 8, !tbaa !4
  %23 = load i8, ptr %21, align 1, !tbaa !26
  %24 = sext i8 %23 to i32
  %25 = icmp eq i32 %20, %24
  br i1 %25, label %8, label %26, !llvm.loop !41

26:                                               ; preds = %16
  store i1 false, ptr %4, align 1
  br label %27

27:                                               ; preds = %26, %12
  %28 = load i1, ptr %4, align 1
  ret i1 %28
}

; Function Attrs: nounwind uwtable
define internal i32 @config_alias_cb(ptr noundef %0, ptr noundef %1, ptr noundef %2, ptr noundef %3) #0 {
  %5 = alloca i32, align 4
  %6 = alloca ptr, align 8
  %7 = alloca ptr, align 8
  %8 = alloca ptr, align 8
  %9 = alloca ptr, align 8
  %10 = alloca ptr, align 8
  %11 = alloca ptr, align 8
  %12 = alloca i32, align 4
  store ptr %0, ptr %6, align 8, !tbaa !4
  store ptr %1, ptr %7, align 8, !tbaa !4
  store ptr %2, ptr %8, align 8, !tbaa !16
  store ptr %3, ptr %9, align 8, !tbaa !18
  call void @llvm.lifetime.start.p0(i64 8, ptr %10) #7
  %13 = load ptr, ptr %9, align 8, !tbaa !18
  store ptr %13, ptr %10, align 8, !tbaa !19
  call void @llvm.lifetime.start.p0(i64 8, ptr %11) #7
  %14 = load ptr, ptr %6, align 8, !tbaa !4
  %15 = call zeroext i1 @skip_prefix(ptr noundef %14, ptr noundef @.str, ptr noundef %11)
  br i1 %15, label %17, label %16

16:                                               ; preds = %4
  store i32 0, ptr %5, align 4
  store i32 1, ptr %12, align 4
  br label %57

17:                                               ; preds = %4
  %18 = load ptr, ptr %10, align 8, !tbaa !19
  %19 = getelementptr inbounds nuw %struct.config_alias_data, ptr %18, i32 0, i32 0
  %20 = load ptr, ptr %19, align 8, !tbaa !9
  %21 = icmp ne ptr %20, null
  br i1 %21, label %22, label %44

22:                                               ; preds = %17
  %23 = load ptr, ptr %11, align 8, !tbaa !4
  %24 = load ptr, ptr %10, align 8, !tbaa !19
  %25 = getelementptr inbounds nuw %struct.config_alias_data, ptr %24, i32 0, i32 0
  %26 = load ptr, ptr %25, align 8, !tbaa !9
  %27 = call i32 @strcasecmp(ptr noundef %23, ptr noundef %26) #8
  %28 = icmp ne i32 %27, 0
  br i1 %28, label %43, label %29

29:                                               ; preds = %22
  br label %30

30:                                               ; preds = %29
  %31 = load ptr, ptr %10, align 8, !tbaa !19
  %32 = getelementptr inbounds nuw %struct.config_alias_data, ptr %31, i32 0, i32 1
  %33 = load ptr, ptr %32, align 8, !tbaa !12
  call void @free(ptr noundef %33) #7
  %34 = load ptr, ptr %10, align 8, !tbaa !19
  %35 = getelementptr inbounds nuw %struct.config_alias_data, ptr %34, i32 0, i32 1
  store ptr null, ptr %35, align 8, !tbaa !12
  br label %36

36:                                               ; preds = %30
  br label %37

37:                                               ; preds = %36
  %38 = load ptr, ptr %10, align 8, !tbaa !19
  %39 = getelementptr inbounds nuw %struct.config_alias_data, ptr %38, i32 0, i32 1
  %40 = load ptr, ptr %6, align 8, !tbaa !4
  %41 = load ptr, ptr %7, align 8, !tbaa !4
  %42 = call i32 @git_config_string(ptr noundef %39, ptr noundef %40, ptr noundef %41)
  store i32 %42, ptr %5, align 4
  store i32 1, ptr %12, align 4
  br label %57

43:                                               ; preds = %22
  br label %56

44:                                               ; preds = %17
  %45 = load ptr, ptr %10, align 8, !tbaa !19
  %46 = getelementptr inbounds nuw %struct.config_alias_data, ptr %45, i32 0, i32 2
  %47 = load ptr, ptr %46, align 8, !tbaa !13
  %48 = icmp ne ptr %47, null
  br i1 %48, label %49, label %55

49:                                               ; preds = %44
  %50 = load ptr, ptr %10, align 8, !tbaa !19
  %51 = getelementptr inbounds nuw %struct.config_alias_data, ptr %50, i32 0, i32 2
  %52 = load ptr, ptr %51, align 8, !tbaa !13
  %53 = load ptr, ptr %11, align 8, !tbaa !4
  %54 = call ptr @string_list_append(ptr noundef %52, ptr noundef %53)
  br label %55

55:                                               ; preds = %49, %44
  br label %56

56:                                               ; preds = %55, %43
  store i32 0, ptr %5, align 4
  store i32 1, ptr %12, align 4
  br label %57

57:                                               ; preds = %56, %37, %16
  call void @llvm.lifetime.end.p0(i64 8, ptr %11) #7
  call void @llvm.lifetime.end.p0(i64 8, ptr %10) #7
  %58 = load i32, ptr %5, align 4
  ret i32 %58
}