; Function Attrs: nounwind uwtable
define internal i32 @config_alias_cb(ptr noundef %0, ptr noundef %1, ptr readnone captures(none) %2, ptr noundef %3) #0 {
  %scevgep.i = getelementptr i8, ptr %0, i64 6
  br label %5

5:                                                ; preds = %7, %4
  %.07.i = phi ptr [ %0, %4 ], [ %8, %7 ]
  %.06.idx.i = phi i64 [ 0, %4 ], [ %.06.add.i, %7 ]
  %.06.ptr.i = getelementptr inbounds nuw i8, ptr @.str, i64 %.06.idx.i
  %6 = load i8, ptr %.06.ptr.i, align 1, !tbaa !14
  %exitcond.i = icmp eq i64 %.06.idx.i, 6
  br i1 %exitcond.i, label %skip_prefix.exit, label %7

7:                                                ; preds = %5
  %8 = getelementptr inbounds nuw i8, ptr %.07.i, i64 1
  %9 = load i8, ptr %.07.i, align 1, !tbaa !14
  %.06.add.i = add nuw nsw i64 %.06.idx.i, 1
  %10 = icmp eq i8 %9, %6
  br i1 %10, label %5, label %skip_prefix.exit, !llvm.loop !15

skip_prefix.exit:                                 ; preds = %5, %7
  %.not.i = icmp eq i8 %6, 0
  br i1 %.not.i, label %11, label %24

11:                                               ; preds = %skip_prefix.exit
  %12 = load ptr, ptr %3, align 8, !tbaa !4
  %.not = icmp eq ptr %12, null
  br i1 %.not, label %19, label %13

13:                                               ; preds = %11
  %14 = tail call i32 @strcasecmp(ptr noundef %scevgep.i, ptr noundef nonnull %12) #10
  %.not14 = icmp eq i32 %14, 0
  br i1 %.not14, label %15, label %24

15:                                               ; preds = %13
  %16 = getelementptr inbounds nuw i8, ptr %3, i64 8
  %17 = load ptr, ptr %16, align 8, !tbaa !13
  tail call void @free(ptr noundef %17) #9
  store ptr null, ptr %16, align 8, !tbaa !13
  %18 = tail call i32 @git_config_string(ptr noundef nonnull %16, ptr noundef %0, ptr noundef %1) #9
  br label %24

19:                                               ; preds = %11
  %20 = getelementptr inbounds nuw i8, ptr %3, i64 16
  %21 = load ptr, ptr %20, align 8, !tbaa !17
  %.not13 = icmp eq ptr %21, null
  br i1 %.not13, label %24, label %22

22:                                               ; preds = %19
  %23 = tail call ptr @string_list_append(ptr noundef nonnull %21, ptr noundef %scevgep.i) #9
  br label %24

24:                                               ; preds = %13, %22, %19, %skip_prefix.exit, %15
  %.0 = phi i32 [ %18, %15 ], [ 0, %skip_prefix.exit ], [ 0, %19 ], [ 0, %22 ], [ 0, %13 ]
  ret i32 %.0
}